; Function Attrs: mustprogress nofree nounwind memory(readwrite, inaccessiblemem: read) uwtable
define noundef ptr @_ZN4ofbx10fromStringEPKcS1_Pdi(ptr noundef readonly %0, ptr noundef readnone %1, ptr nocapture noundef writeonly %2, i32 noundef %3) local_unnamed_addr #14 {
  %5 = ptrtoint ptr %1 to i64
  %6 = icmp sgt i32 %3, 0
  br i1 %6, label %.lr.ph29, label %._crit_edge

7:                                                ; preds = %.critedge
  %8 = add nuw nsw i32 %.028, 1
  %exitcond34.not = icmp eq i32 %8, %3
  br i1 %exitcond34.not, label %._crit_edge, label %.lr.ph29, !llvm.loop !14

.lr.ph29:                                         ; preds = %4, %7
  %.028 = phi i32 [ %8, %7 ], [ 0, %4 ]
  %.01827 = phi ptr [ %spec.select, %7 ], [ %0, %4 ]
  %.02026 = phi ptr [ %10, %7 ], [ %2, %4 ]
  %9 = tail call double @atof(ptr noundef %.01827) #30
  store double %9, ptr %.02026, align 8
  %10 = getelementptr inbounds i8, ptr %.02026, i64 8
  %11 = icmp ult ptr %.01827, %1
  br i1 %11, label %.lr.ph.preheader, label %.critedge

.lr.ph.preheader:                                 ; preds = %.lr.ph29
  %.0182732 = ptrtoint ptr %.01827 to i64
  %scevgep = getelementptr i8, ptr %.01827, i64 %5
  %12 = sub i64 0, %.0182732
  %scevgep33 = getelementptr i8, ptr %scevgep, i64 %12
  %13 = load i8, ptr %.01827, align 1
  %.not35 = icmp eq i8 %13, 44
  br i1 %.not35, label %.critedge, label %.lr.ph37

.lr.ph:                                           ; preds = %.lr.ph37
  %14 = load i8, ptr %15, align 1
  %.not = icmp eq i8 %14, 44
  br i1 %.not, label %.critedge.loopexit, label %.lr.ph37, !llvm.loop !15

.lr.ph37:                                         ; preds = %.lr.ph.preheader, %.lr.ph
  %.12136 = phi ptr [ %15, %.lr.ph ], [ %.01827, %.lr.ph.preheader ]
  %15 = getelementptr inbounds i8, ptr %.12136, i64 1
  %exitcond.not = icmp eq ptr %15, %scevgep33
  br i1 %exitcond.not, label %.critedge.loopexit, label %.lr.ph, !llvm.loop !15

.critedge.loopexit:                               ; preds = %.lr.ph, %.lr.ph37
  %.1.lcssa.ph = phi ptr [ %15, %.lr.ph ], [ %scevgep33, %.lr.ph37 ]
  %16 = icmp ult ptr %15, %1
  br label %.critedge

.critedge:                                        ; preds = %.critedge.loopexit, %.lr.ph.preheader, %.lr.ph29
  %.1.lcssa = phi ptr [ %.01827, %.lr.ph29 ], [ %.01827, %.lr.ph.preheader ], [ %.1.lcssa.ph, %.critedge.loopexit ]
  %.lcssa = phi i1 [ false, %.lr.ph29 ], [ true, %.lr.ph.preheader ], [ %16, %.critedge.loopexit ]
  %spec.select.idx = zext i1 %.lcssa to i64
  %spec.select = getelementptr inbounds i8, ptr %.1.lcssa, i64 %spec.select.idx
  %17 = icmp eq ptr %spec.select, %1
  br i1 %17, label %._crit_edge, label %7

._crit_edge:                                      ; preds = %.critedge, %7, %4
  %.019 = phi ptr [ %0, %4 ], [ %1, %.critedge ], [ %spec.select, %7 ]
  ret ptr %.019
}